
udpserver:     file format elf64-x86-64


Disassembly of section .init:

00000000004007b8 <_init>:
  4007b8:	48 83 ec 08          	sub    $0x8,%rsp
  4007bc:	48 8b 05 35 18 20 00 	mov    0x201835(%rip),%rax        # 601ff8 <_DYNAMIC+0x1d0>
  4007c3:	48 85 c0             	test   %rax,%rax
  4007c6:	74 05                	je     4007cd <_init+0x15>
  4007c8:	e8 43 01 00 00       	callq  400910 <socket@plt+0x10>
  4007cd:	48 83 c4 08          	add    $0x8,%rsp
  4007d1:	c3                   	retq   

Disassembly of section .plt:

00000000004007e0 <puts@plt-0x10>:
  4007e0:	ff 35 22 18 20 00    	pushq  0x201822(%rip)        # 602008 <_GLOBAL_OFFSET_TABLE_+0x8>
  4007e6:	ff 25 24 18 20 00    	jmpq   *0x201824(%rip)        # 602010 <_GLOBAL_OFFSET_TABLE_+0x10>
  4007ec:	0f 1f 40 00          	nopl   0x0(%rax)

00000000004007f0 <puts@plt>:
  4007f0:	ff 25 22 18 20 00    	jmpq   *0x201822(%rip)        # 602018 <_GLOBAL_OFFSET_TABLE_+0x18>
  4007f6:	68 00 00 00 00       	pushq  $0x0
  4007fb:	e9 e0 ff ff ff       	jmpq   4007e0 <_init+0x28>

0000000000400800 <setsockopt@plt>:
  400800:	ff 25 1a 18 20 00    	jmpq   *0x20181a(%rip)        # 602020 <_GLOBAL_OFFSET_TABLE_+0x20>
  400806:	68 01 00 00 00       	pushq  $0x1
  40080b:	e9 d0 ff ff ff       	jmpq   4007e0 <_init+0x28>

0000000000400810 <inet_ntoa@plt>:
  400810:	ff 25 12 18 20 00    	jmpq   *0x201812(%rip)        # 602028 <_GLOBAL_OFFSET_TABLE_+0x28>
  400816:	68 02 00 00 00       	pushq  $0x2
  40081b:	e9 c0 ff ff ff       	jmpq   4007e0 <_init+0x28>

0000000000400820 <strlen@plt>:
  400820:	ff 25 0a 18 20 00    	jmpq   *0x20180a(%rip)        # 602030 <_GLOBAL_OFFSET_TABLE_+0x30>
  400826:	68 03 00 00 00       	pushq  $0x3
  40082b:	e9 b0 ff ff ff       	jmpq   4007e0 <_init+0x28>

0000000000400830 <htons@plt>:
  400830:	ff 25 02 18 20 00    	jmpq   *0x201802(%rip)        # 602038 <_GLOBAL_OFFSET_TABLE_+0x38>
  400836:	68 04 00 00 00       	pushq  $0x4
  40083b:	e9 a0 ff ff ff       	jmpq   4007e0 <_init+0x28>

0000000000400840 <printf@plt>:
  400840:	ff 25 fa 17 20 00    	jmpq   *0x2017fa(%rip)        # 602040 <_GLOBAL_OFFSET_TABLE_+0x40>
  400846:	68 05 00 00 00       	pushq  $0x5
  40084b:	e9 90 ff ff ff       	jmpq   4007e0 <_init+0x28>

0000000000400850 <htonl@plt>:
  400850:	ff 25 f2 17 20 00    	jmpq   *0x2017f2(%rip)        # 602048 <_GLOBAL_OFFSET_TABLE_+0x48>
  400856:	68 06 00 00 00       	pushq  $0x6
  40085b:	e9 80 ff ff ff       	jmpq   4007e0 <_init+0x28>

0000000000400860 <sendto@plt>:
  400860:	ff 25 ea 17 20 00    	jmpq   *0x2017ea(%rip)        # 602050 <_GLOBAL_OFFSET_TABLE_+0x50>
  400866:	68 07 00 00 00       	pushq  $0x7
  40086b:	e9 70 ff ff ff       	jmpq   4007e0 <_init+0x28>

0000000000400870 <__libc_start_main@plt>:
  400870:	ff 25 e2 17 20 00    	jmpq   *0x2017e2(%rip)        # 602058 <_GLOBAL_OFFSET_TABLE_+0x58>
  400876:	68 08 00 00 00       	pushq  $0x8
  40087b:	e9 60 ff ff ff       	jmpq   4007e0 <_init+0x28>

0000000000400880 <fprintf@plt>:
  400880:	ff 25 da 17 20 00    	jmpq   *0x2017da(%rip)        # 602060 <_GLOBAL_OFFSET_TABLE_+0x60>
  400886:	68 09 00 00 00       	pushq  $0x9
  40088b:	e9 50 ff ff ff       	jmpq   4007e0 <_init+0x28>

0000000000400890 <recvfrom@plt>:
  400890:	ff 25 d2 17 20 00    	jmpq   *0x2017d2(%rip)        # 602068 <_GLOBAL_OFFSET_TABLE_+0x68>
  400896:	68 0a 00 00 00       	pushq  $0xa
  40089b:	e9 40 ff ff ff       	jmpq   4007e0 <_init+0x28>

00000000004008a0 <bind@plt>:
  4008a0:	ff 25 ca 17 20 00    	jmpq   *0x2017ca(%rip)        # 602070 <_GLOBAL_OFFSET_TABLE_+0x70>
  4008a6:	68 0b 00 00 00       	pushq  $0xb
  4008ab:	e9 30 ff ff ff       	jmpq   4007e0 <_init+0x28>

00000000004008b0 <perror@plt>:
  4008b0:	ff 25 c2 17 20 00    	jmpq   *0x2017c2(%rip)        # 602078 <_GLOBAL_OFFSET_TABLE_+0x78>
  4008b6:	68 0c 00 00 00       	pushq  $0xc
  4008bb:	e9 20 ff ff ff       	jmpq   4007e0 <_init+0x28>

00000000004008c0 <bzero@plt>:
  4008c0:	ff 25 ba 17 20 00    	jmpq   *0x2017ba(%rip)        # 602080 <_GLOBAL_OFFSET_TABLE_+0x80>
  4008c6:	68 0d 00 00 00       	pushq  $0xd
  4008cb:	e9 10 ff ff ff       	jmpq   4007e0 <_init+0x28>

00000000004008d0 <atoi@plt>:
  4008d0:	ff 25 b2 17 20 00    	jmpq   *0x2017b2(%rip)        # 602088 <_GLOBAL_OFFSET_TABLE_+0x88>
  4008d6:	68 0e 00 00 00       	pushq  $0xe
  4008db:	e9 00 ff ff ff       	jmpq   4007e0 <_init+0x28>

00000000004008e0 <gethostbyaddr@plt>:
  4008e0:	ff 25 aa 17 20 00    	jmpq   *0x2017aa(%rip)        # 602090 <_GLOBAL_OFFSET_TABLE_+0x90>
  4008e6:	68 0f 00 00 00       	pushq  $0xf
  4008eb:	e9 f0 fe ff ff       	jmpq   4007e0 <_init+0x28>

00000000004008f0 <exit@plt>:
  4008f0:	ff 25 a2 17 20 00    	jmpq   *0x2017a2(%rip)        # 602098 <_GLOBAL_OFFSET_TABLE_+0x98>
  4008f6:	68 10 00 00 00       	pushq  $0x10
  4008fb:	e9 e0 fe ff ff       	jmpq   4007e0 <_init+0x28>

0000000000400900 <socket@plt>:
  400900:	ff 25 9a 17 20 00    	jmpq   *0x20179a(%rip)        # 6020a0 <_GLOBAL_OFFSET_TABLE_+0xa0>
  400906:	68 11 00 00 00       	pushq  $0x11
  40090b:	e9 d0 fe ff ff       	jmpq   4007e0 <_init+0x28>

Disassembly of section .plt.got:

0000000000400910 <.plt.got>:
  400910:	ff 25 e2 16 20 00    	jmpq   *0x2016e2(%rip)        # 601ff8 <_DYNAMIC+0x1d0>
  400916:	66 90                	xchg   %ax,%ax

Disassembly of section .text:

0000000000400920 <_start>:
  400920:	31 ed                	xor    %ebp,%ebp
  400922:	49 89 d1             	mov    %rdx,%r9
  400925:	5e                   	pop    %rsi
  400926:	48 89 e2             	mov    %rsp,%rdx
  400929:	48 83 e4 f0          	and    $0xfffffffffffffff0,%rsp
  40092d:	50                   	push   %rax
  40092e:	54                   	push   %rsp
  40092f:	49 c7 c0 20 0d 40 00 	mov    $0x400d20,%r8
  400936:	48 c7 c1 b0 0c 40 00 	mov    $0x400cb0,%rcx
  40093d:	48 c7 c7 5a 0a 40 00 	mov    $0x400a5a,%rdi
  400944:	e8 27 ff ff ff       	callq  400870 <__libc_start_main@plt>
  400949:	f4                   	hlt    
  40094a:	66 0f 1f 44 00 00    	nopw   0x0(%rax,%rax,1)

0000000000400950 <deregister_tm_clones>:
  400950:	b8 bf 20 60 00       	mov    $0x6020bf,%eax
  400955:	55                   	push   %rbp
  400956:	48 2d b8 20 60 00    	sub    $0x6020b8,%rax
  40095c:	48 83 f8 0e          	cmp    $0xe,%rax
  400960:	48 89 e5             	mov    %rsp,%rbp
  400963:	76 1b                	jbe    400980 <deregister_tm_clones+0x30>
  400965:	b8 00 00 00 00       	mov    $0x0,%eax
  40096a:	48 85 c0             	test   %rax,%rax
  40096d:	74 11                	je     400980 <deregister_tm_clones+0x30>
  40096f:	5d                   	pop    %rbp
  400970:	bf b8 20 60 00       	mov    $0x6020b8,%edi
  400975:	ff e0                	jmpq   *%rax
  400977:	66 0f 1f 84 00 00 00 	nopw   0x0(%rax,%rax,1)
  40097e:	00 00 
  400980:	5d                   	pop    %rbp
  400981:	c3                   	retq   
  400982:	0f 1f 40 00          	nopl   0x0(%rax)
  400986:	66 2e 0f 1f 84 00 00 	nopw   %cs:0x0(%rax,%rax,1)
  40098d:	00 00 00 

0000000000400990 <register_tm_clones>:
  400990:	be b8 20 60 00       	mov    $0x6020b8,%esi
  400995:	55                   	push   %rbp
  400996:	48 81 ee b8 20 60 00 	sub    $0x6020b8,%rsi
  40099d:	48 c1 fe 03          	sar    $0x3,%rsi
  4009a1:	48 89 e5             	mov    %rsp,%rbp
  4009a4:	48 89 f0             	mov    %rsi,%rax
  4009a7:	48 c1 e8 3f          	shr    $0x3f,%rax
  4009ab:	48 01 c6             	add    %rax,%rsi
  4009ae:	48 d1 fe             	sar    %rsi
  4009b1:	74 15                	je     4009c8 <register_tm_clones+0x38>
  4009b3:	b8 00 00 00 00       	mov    $0x0,%eax
  4009b8:	48 85 c0             	test   %rax,%rax
  4009bb:	74 0b                	je     4009c8 <register_tm_clones+0x38>
  4009bd:	5d                   	pop    %rbp
  4009be:	bf b8 20 60 00       	mov    $0x6020b8,%edi
  4009c3:	ff e0                	jmpq   *%rax
  4009c5:	0f 1f 00             	nopl   (%rax)
  4009c8:	5d                   	pop    %rbp
  4009c9:	c3                   	retq   
  4009ca:	66 0f 1f 44 00 00    	nopw   0x0(%rax,%rax,1)

00000000004009d0 <__do_global_dtors_aux>:
  4009d0:	80 3d f1 16 20 00 00 	cmpb   $0x0,0x2016f1(%rip)        # 6020c8 <completed.7585>
  4009d7:	75 11                	jne    4009ea <__do_global_dtors_aux+0x1a>
  4009d9:	55                   	push   %rbp
  4009da:	48 89 e5             	mov    %rsp,%rbp
  4009dd:	e8 6e ff ff ff       	callq  400950 <deregister_tm_clones>
  4009e2:	5d                   	pop    %rbp
  4009e3:	c6 05 de 16 20 00 01 	movb   $0x1,0x2016de(%rip)        # 6020c8 <completed.7585>
  4009ea:	f3 c3                	repz retq 
  4009ec:	0f 1f 40 00          	nopl   0x0(%rax)

00000000004009f0 <frame_dummy>:
  4009f0:	bf 20 1e 60 00       	mov    $0x601e20,%edi
  4009f5:	48 83 3f 00          	cmpq   $0x0,(%rdi)
  4009f9:	75 05                	jne    400a00 <frame_dummy+0x10>
  4009fb:	eb 93                	jmp    400990 <register_tm_clones>
  4009fd:	0f 1f 00             	nopl   (%rax)
  400a00:	b8 00 00 00 00       	mov    $0x0,%eax
  400a05:	48 85 c0             	test   %rax,%rax
  400a08:	74 f1                	je     4009fb <frame_dummy+0xb>
  400a0a:	55                   	push   %rbp
  400a0b:	48 89 e5             	mov    %rsp,%rbp
  400a0e:	ff d0                	callq  *%rax
  400a10:	5d                   	pop    %rbp
  400a11:	e9 7a ff ff ff       	jmpq   400990 <register_tm_clones>

0000000000400a16 <fazbarulho1>:
  400a16:	55                   	push   %rbp
  400a17:	48 89 e5             	mov    %rsp,%rbp
  400a1a:	bf 38 0d 40 00       	mov    $0x400d38,%edi
  400a1f:	e8 cc fd ff ff       	callq  4007f0 <puts@plt>
  400a24:	90                   	nop
  400a25:	5d                   	pop    %rbp
  400a26:	c3                   	retq   

0000000000400a27 <pvtot>:
  400a27:	55                   	push   %rbp
  400a28:	48 89 e5             	mov    %rsp,%rbp
  400a2b:	bf 40 0d 40 00       	mov    $0x400d40,%edi
  400a30:	e8 bb fd ff ff       	callq  4007f0 <puts@plt>
  400a35:	90                   	nop
  400a36:	5d                   	pop    %rbp
  400a37:	c3                   	retq   

0000000000400a38 <error>:
  400a38:	55                   	push   %rbp
  400a39:	48 89 e5             	mov    %rsp,%rbp
  400a3c:	48 83 ec 10          	sub    $0x10,%rsp
  400a40:	48 89 7d f8          	mov    %rdi,-0x8(%rbp)
  400a44:	48 8b 45 f8          	mov    -0x8(%rbp),%rax
  400a48:	48 89 c7             	mov    %rax,%rdi
  400a4b:	e8 60 fe ff ff       	callq  4008b0 <perror@plt>
  400a50:	bf 01 00 00 00       	mov    $0x1,%edi
  400a55:	e8 96 fe ff ff       	callq  4008f0 <exit@plt>

0000000000400a5a <main>:
  400a5a:	55                   	push   %rbp
  400a5b:	48 89 e5             	mov    %rsp,%rbp
  400a5e:	53                   	push   %rbx
  400a5f:	48 83 ec 78          	sub    $0x78,%rsp
  400a63:	89 7d 8c             	mov    %edi,-0x74(%rbp)
  400a66:	48 89 75 80          	mov    %rsi,-0x80(%rbp)
  400a6a:	64 48 8b 04 25 28 00 	mov    %fs:0x28,%rax
  400a71:	00 00 
  400a73:	48 89 45 e8          	mov    %rax,-0x18(%rbp)
  400a77:	31 c0                	xor    %eax,%eax
  400a79:	48 c7 05 dc 16 20 00 	movq   $0x400a16,0x2016dc(%rip)        # 602160 <cachorros>
  400a80:	16 0a 40 00 
  400a84:	83 7d 8c 02          	cmpl   $0x2,-0x74(%rbp)
  400a88:	74 2a                	je     400ab4 <main+0x5a>
  400a8a:	48 8b 45 80          	mov    -0x80(%rbp),%rax
  400a8e:	48 8b 10             	mov    (%rax),%rdx
  400a91:	48 8b 05 28 16 20 00 	mov    0x201628(%rip),%rax        # 6020c0 <stderr@@GLIBC_2.2.5>
  400a98:	be 64 0d 40 00       	mov    $0x400d64,%esi
  400a9d:	48 89 c7             	mov    %rax,%rdi
  400aa0:	b8 00 00 00 00       	mov    $0x0,%eax
  400aa5:	e8 d6 fd ff ff       	callq  400880 <fprintf@plt>
  400aaa:	bf 01 00 00 00       	mov    $0x1,%edi
  400aaf:	e8 3c fe ff ff       	callq  4008f0 <exit@plt>
  400ab4:	48 8b 45 80          	mov    -0x80(%rbp),%rax
  400ab8:	48 83 c0 08          	add    $0x8,%rax
  400abc:	48 8b 00             	mov    (%rax),%rax
  400abf:	48 89 c7             	mov    %rax,%rdi
  400ac2:	e8 09 fe ff ff       	callq  4008d0 <atoi@plt>
  400ac7:	89 45 a4             	mov    %eax,-0x5c(%rbp)
  400aca:	ba 00 00 00 00       	mov    $0x0,%edx
  400acf:	be 02 00 00 00       	mov    $0x2,%esi
  400ad4:	bf 02 00 00 00       	mov    $0x2,%edi
  400ad9:	e8 22 fe ff ff       	callq  400900 <socket@plt>
  400ade:	89 45 a8             	mov    %eax,-0x58(%rbp)
  400ae1:	83 7d a8 00          	cmpl   $0x0,-0x58(%rbp)
  400ae5:	79 0a                	jns    400af1 <main+0x97>
  400ae7:	bf 76 0d 40 00       	mov    $0x400d76,%edi
  400aec:	e8 47 ff ff ff       	callq  400a38 <error>
  400af1:	c7 45 a0 01 00 00 00 	movl   $0x1,-0x60(%rbp)
  400af8:	48 8d 55 a0          	lea    -0x60(%rbp),%rdx
  400afc:	8b 45 a8             	mov    -0x58(%rbp),%eax
  400aff:	41 b8 04 00 00 00    	mov    $0x4,%r8d
  400b05:	48 89 d1             	mov    %rdx,%rcx
  400b08:	ba 02 00 00 00       	mov    $0x2,%edx
  400b0d:	be 01 00 00 00       	mov    $0x1,%esi
  400b12:	89 c7                	mov    %eax,%edi
  400b14:	e8 e7 fc ff ff       	callq  400800 <setsockopt@plt>
  400b19:	48 8d 45 c0          	lea    -0x40(%rbp),%rax
  400b1d:	be 10 00 00 00       	mov    $0x10,%esi
  400b22:	48 89 c7             	mov    %rax,%rdi
  400b25:	e8 96 fd ff ff       	callq  4008c0 <bzero@plt>
  400b2a:	66 c7 45 c0 02 00    	movw   $0x2,-0x40(%rbp)
  400b30:	bf 00 00 00 00       	mov    $0x0,%edi
  400b35:	e8 16 fd ff ff       	callq  400850 <htonl@plt>
  400b3a:	89 45 c4             	mov    %eax,-0x3c(%rbp)
  400b3d:	8b 45 a4             	mov    -0x5c(%rbp),%eax
  400b40:	0f b7 c0             	movzwl %ax,%eax
  400b43:	89 c7                	mov    %eax,%edi
  400b45:	e8 e6 fc ff ff       	callq  400830 <htons@plt>
  400b4a:	66 89 45 c2          	mov    %ax,-0x3e(%rbp)
  400b4e:	48 8d 4d c0          	lea    -0x40(%rbp),%rcx
  400b52:	8b 45 a8             	mov    -0x58(%rbp),%eax
  400b55:	ba 10 00 00 00       	mov    $0x10,%edx
  400b5a:	48 89 ce             	mov    %rcx,%rsi
  400b5d:	89 c7                	mov    %eax,%edi
  400b5f:	e8 3c fd ff ff       	callq  4008a0 <bind@plt>
  400b64:	85 c0                	test   %eax,%eax
  400b66:	79 0a                	jns    400b72 <main+0x118>
  400b68:	bf 8b 0d 40 00       	mov    $0x400d8b,%edi
  400b6d:	e8 c6 fe ff ff       	callq  400a38 <error>
  400b72:	c7 45 9c 10 00 00 00 	movl   $0x10,-0x64(%rbp)
  400b79:	48 8d 4d 9c          	lea    -0x64(%rbp),%rcx
  400b7d:	48 8d 55 d0          	lea    -0x30(%rbp),%rdx
  400b81:	8b 45 a8             	mov    -0x58(%rbp),%eax
  400b84:	49 89 c9             	mov    %rcx,%r9
  400b87:	49 89 d0             	mov    %rdx,%r8
  400b8a:	b9 00 00 00 00       	mov    $0x0,%ecx
  400b8f:	ba 00 04 00 00       	mov    $0x400,%edx
  400b94:	be e0 20 60 00       	mov    $0x6020e0,%esi
  400b99:	89 c7                	mov    %eax,%edi
  400b9b:	e8 f0 fc ff ff       	callq  400890 <recvfrom@plt>
  400ba0:	89 45 ac             	mov    %eax,-0x54(%rbp)
  400ba3:	83 7d ac 00          	cmpl   $0x0,-0x54(%rbp)
  400ba7:	79 0a                	jns    400bb3 <main+0x159>
  400ba9:	bf 9c 0d 40 00       	mov    $0x400d9c,%edi
  400bae:	e8 85 fe ff ff       	callq  400a38 <error>
  400bb3:	48 8b 15 a6 15 20 00 	mov    0x2015a6(%rip),%rdx        # 602160 <cachorros>
  400bba:	b8 00 00 00 00       	mov    $0x0,%eax
  400bbf:	ff d2                	callq  *%rdx
  400bc1:	48 8d 45 d0          	lea    -0x30(%rbp),%rax
  400bc5:	48 83 c0 04          	add    $0x4,%rax
  400bc9:	ba 02 00 00 00       	mov    $0x2,%edx
  400bce:	be 04 00 00 00       	mov    $0x4,%esi
  400bd3:	48 89 c7             	mov    %rax,%rdi
  400bd6:	e8 05 fd ff ff       	callq  4008e0 <gethostbyaddr@plt>
  400bdb:	48 89 45 b0          	mov    %rax,-0x50(%rbp)
  400bdf:	48 83 7d b0 00       	cmpq   $0x0,-0x50(%rbp)
  400be4:	75 0a                	jne    400bf0 <main+0x196>
  400be6:	bf ae 0d 40 00       	mov    $0x400dae,%edi
  400beb:	e8 48 fe ff ff       	callq  400a38 <error>
  400bf0:	8b 45 d4             	mov    -0x2c(%rbp),%eax
  400bf3:	89 c7                	mov    %eax,%edi
  400bf5:	e8 16 fc ff ff       	callq  400810 <inet_ntoa@plt>
  400bfa:	48 89 45 b8          	mov    %rax,-0x48(%rbp)
  400bfe:	48 83 7d b8 00       	cmpq   $0x0,-0x48(%rbp)
  400c03:	75 0a                	jne    400c0f <main+0x1b5>
  400c05:	bf c5 0d 40 00       	mov    $0x400dc5,%edi
  400c0a:	e8 29 fe ff ff       	callq  400a38 <error>
  400c0f:	48 8b 45 b0          	mov    -0x50(%rbp),%rax
  400c13:	48 8b 00             	mov    (%rax),%rax
  400c16:	48 8b 55 b8          	mov    -0x48(%rbp),%rdx
  400c1a:	48 89 c6             	mov    %rax,%rsi
  400c1d:	bf e0 0d 40 00       	mov    $0x400de0,%edi
  400c22:	b8 00 00 00 00       	mov    $0x0,%eax
  400c27:	e8 14 fc ff ff       	callq  400840 <printf@plt>
  400c2c:	bf e0 20 60 00       	mov    $0x6020e0,%edi
  400c31:	e8 ea fb ff ff       	callq  400820 <strlen@plt>
  400c36:	48 89 c6             	mov    %rax,%rsi
  400c39:	8b 45 ac             	mov    -0x54(%rbp),%eax
  400c3c:	b9 e0 20 60 00       	mov    $0x6020e0,%ecx
  400c41:	89 c2                	mov    %eax,%edx
  400c43:	bf 08 0e 40 00       	mov    $0x400e08,%edi
  400c48:	b8 00 00 00 00       	mov    $0x0,%eax
  400c4d:	e8 ee fb ff ff       	callq  400840 <printf@plt>
  400c52:	8b 45 9c             	mov    -0x64(%rbp),%eax
  400c55:	89 c3                	mov    %eax,%ebx
  400c57:	bf e0 20 60 00       	mov    $0x6020e0,%edi
  400c5c:	e8 bf fb ff ff       	callq  400820 <strlen@plt>
  400c61:	48 89 c6             	mov    %rax,%rsi
  400c64:	48 8d 55 d0          	lea    -0x30(%rbp),%rdx
  400c68:	8b 45 a8             	mov    -0x58(%rbp),%eax
  400c6b:	41 89 d9             	mov    %ebx,%r9d
  400c6e:	49 89 d0             	mov    %rdx,%r8
  400c71:	b9 00 00 00 00       	mov    $0x0,%ecx
  400c76:	48 89 f2             	mov    %rsi,%rdx
  400c79:	be e0 20 60 00       	mov    $0x6020e0,%esi
  400c7e:	89 c7                	mov    %eax,%edi
  400c80:	e8 db fb ff ff       	callq  400860 <sendto@plt>
  400c85:	89 45 ac             	mov    %eax,-0x54(%rbp)
  400c88:	83 7d ac 00          	cmpl   $0x0,-0x54(%rbp)
  400c8c:	0f 89 e7 fe ff ff    	jns    400b79 <main+0x11f>
  400c92:	bf 29 0e 40 00       	mov    $0x400e29,%edi
  400c97:	e8 9c fd ff ff       	callq  400a38 <error>
  400c9c:	e9 d8 fe ff ff       	jmpq   400b79 <main+0x11f>
  400ca1:	66 2e 0f 1f 84 00 00 	nopw   %cs:0x0(%rax,%rax,1)
  400ca8:	00 00 00 
  400cab:	0f 1f 44 00 00       	nopl   0x0(%rax,%rax,1)

0000000000400cb0 <__libc_csu_init>:
  400cb0:	41 57                	push   %r15
  400cb2:	41 56                	push   %r14
  400cb4:	41 89 ff             	mov    %edi,%r15d
  400cb7:	41 55                	push   %r13
  400cb9:	41 54                	push   %r12
  400cbb:	4c 8d 25 4e 11 20 00 	lea    0x20114e(%rip),%r12        # 601e10 <__frame_dummy_init_array_entry>
  400cc2:	55                   	push   %rbp
  400cc3:	48 8d 2d 4e 11 20 00 	lea    0x20114e(%rip),%rbp        # 601e18 <__init_array_end>
  400cca:	53                   	push   %rbx
  400ccb:	49 89 f6             	mov    %rsi,%r14
  400cce:	49 89 d5             	mov    %rdx,%r13
  400cd1:	4c 29 e5             	sub    %r12,%rbp
  400cd4:	48 83 ec 08          	sub    $0x8,%rsp
  400cd8:	48 c1 fd 03          	sar    $0x3,%rbp
  400cdc:	e8 d7 fa ff ff       	callq  4007b8 <_init>
  400ce1:	48 85 ed             	test   %rbp,%rbp
  400ce4:	74 20                	je     400d06 <__libc_csu_init+0x56>
  400ce6:	31 db                	xor    %ebx,%ebx
  400ce8:	0f 1f 84 00 00 00 00 	nopl   0x0(%rax,%rax,1)
  400cef:	00 
  400cf0:	4c 89 ea             	mov    %r13,%rdx
  400cf3:	4c 89 f6             	mov    %r14,%rsi
  400cf6:	44 89 ff             	mov    %r15d,%edi
  400cf9:	41 ff 14 dc          	callq  *(%r12,%rbx,8)
  400cfd:	48 83 c3 01          	add    $0x1,%rbx
  400d01:	48 39 eb             	cmp    %rbp,%rbx
  400d04:	75 ea                	jne    400cf0 <__libc_csu_init+0x40>
  400d06:	48 83 c4 08          	add    $0x8,%rsp
  400d0a:	5b                   	pop    %rbx
  400d0b:	5d                   	pop    %rbp
  400d0c:	41 5c                	pop    %r12
  400d0e:	41 5d                	pop    %r13
  400d10:	41 5e                	pop    %r14
  400d12:	41 5f                	pop    %r15
  400d14:	c3                   	retq   
  400d15:	90                   	nop
  400d16:	66 2e 0f 1f 84 00 00 	nopw   %cs:0x0(%rax,%rax,1)
  400d1d:	00 00 00 

0000000000400d20 <__libc_csu_fini>:
  400d20:	f3 c3                	repz retq 

Disassembly of section .fini:

0000000000400d24 <_fini>:
  400d24:	48 83 ec 08          	sub    $0x8,%rsp
  400d28:	48 83 c4 08          	add    $0x8,%rsp
  400d2c:	c3                   	retq   
